; Function Attrs: mustprogress uwtable
define void @_ZN15RtpStreamDialog36on_actionFindReverseNormal_triggeredEv(ptr noundef nonnull align 8 dereferenceable(360) %0) #0 align 2 {
  %2 = alloca %class.QList.17, align 8
  %3 = getelementptr inbounds i8, ptr %0, i64 136
  %4 = load ptr, ptr %3, align 8
  %5 = getelementptr inbounds i8, ptr %4, i64 144
  %6 = load ptr, ptr %5, align 8
  call void @_ZNK11QTreeWidget13selectedItemsEv(ptr dead_on_unwind nonnull writable sret(%class.QList.17) align 8 %2, ptr noundef nonnull align 8 dereferenceable(40) %6)
  %7 = getelementptr inbounds i8, ptr %2, i64 16
  %8 = load i64, ptr %7, align 8
  %9 = icmp slt i64 %8, 1
  %10 = load ptr, ptr %2, align 8
  %.not.i.i.i = icmp eq ptr %10, null
  br i1 %.not.i.i.i, label %_ZN5QListIP15QTreeWidgetItemED2Ev.exit, label %_ZN17QArrayDataPointerIP15QTreeWidgetItemE5derefEv.exit.i.i

_ZN17QArrayDataPointerIP15QTreeWidgetItemE5derefEv.exit.i.i: ; preds = %1
  %11 = atomicrmw sub ptr %10, i32 1 seq_cst, align 4
  %.not.i.i = icmp eq i32 %11, 1
  br i1 %.not.i.i, label %12, label %_ZN5QListIP15QTreeWidgetItemED2Ev.exit

12:                                               ; preds = %_ZN17QArrayDataPointerIP15QTreeWidgetItemE5derefEv.exit.i.i
  %13 = load ptr, ptr %2, align 8
  call void @_ZN10QArrayData10deallocateEPS_xx(ptr noundef %13, i64 noundef 8, i64 noundef 8) #18
  br label %_ZN5QListIP15QTreeWidgetItemED2Ev.exit

_ZN5QListIP15QTreeWidgetItemED2Ev.exit:           ; preds = %1, %_ZN17QArrayDataPointerIP15QTreeWidgetItemE5derefEv.exit.i.i, %12
  br i1 %9, label %65, label %14

14:                                               ; preds = %_ZN5QListIP15QTreeWidgetItemED2Ev.exit
  %15 = load ptr, ptr %3, align 8
  %16 = getelementptr inbounds i8, ptr %15, i64 144
  %17 = load ptr, ptr %16, align 8
  %18 = call noundef zeroext i1 @_ZN7QObject12blockSignalsEb(ptr noundef nonnull align 8 dereferenceable(16) %17, i1 noundef zeroext true) #18
  %19 = load ptr, ptr %3, align 8
  %20 = getelementptr inbounds i8, ptr %19, i64 144
  %21 = load ptr, ptr %20, align 8
  %22 = call noundef i32 @_ZNK11QTreeWidget17topLevelItemCountEv(ptr noundef nonnull align 8 dereferenceable(40) %21)
  %23 = icmp sgt i32 %22, 0
  br i1 %23, label %.lr.ph23, label %._crit_edge

.lr.ph23:                                         ; preds = %14, %.loopexit
  %.022 = phi i32 [ %52, %.loopexit ], [ 0, %14 ]
  %24 = load ptr, ptr %3, align 8
  %25 = getelementptr inbounds i8, ptr %24, i64 144
  %26 = load ptr, ptr %25, align 8
  %27 = call noundef ptr @_ZNK11QTreeWidget12topLevelItemEi(ptr noundef nonnull align 8 dereferenceable(40) %26, i32 noundef %.022)
  %28 = getelementptr inbounds i8, ptr %27, i64 96
  %29 = load ptr, ptr %28, align 8
  %.not = icmp eq ptr %29, null
  br i1 %.not, label %.loopexit, label %30

30:                                               ; preds = %.lr.ph23
  %31 = call noundef zeroext i1 @_ZNK15QTreeWidgetItem10isSelectedEv(ptr noundef nonnull align 8 dereferenceable(92) %27)
  br i1 %31, label %.preheader, label %.loopexit

.preheader:                                       ; preds = %30
  %.01520 = add nuw nsw i32 %.022, 1
  %32 = load ptr, ptr %3, align 8
  %33 = getelementptr inbounds i8, ptr %32, i64 144
  %34 = load ptr, ptr %33, align 8
  %35 = call noundef i32 @_ZNK11QTreeWidget17topLevelItemCountEv(ptr noundef nonnull align 8 dereferenceable(40) %34)
  %36 = icmp slt i32 %.01520, %35
  br i1 %36, label %.lr.ph, label %.loopexit

.lr.ph:                                           ; preds = %.preheader, %46
  %.01521 = phi i32 [ %.015, %46 ], [ %.01520, %.preheader ]
  %37 = load ptr, ptr %3, align 8
  %38 = getelementptr inbounds i8, ptr %37, i64 144
  %39 = load ptr, ptr %38, align 8
  %40 = call noundef ptr @_ZNK11QTreeWidget12topLevelItemEi(ptr noundef nonnull align 8 dereferenceable(40) %39, i32 noundef %.01521)
  %41 = getelementptr inbounds i8, ptr %40, i64 96
  %42 = load ptr, ptr %41, align 8
  %.not18 = icmp eq ptr %42, null
  br i1 %.not18, label %46, label %43

43:                                               ; preds = %.lr.ph
  %44 = call i32 @rtpstream_info_is_reverse(ptr noundef nonnull %29, ptr noundef nonnull %42)
  %.not19 = icmp eq i32 %44, 0
  br i1 %.not19, label %46, label %45

45:                                               ; preds = %43
  call void @_ZN15QTreeWidgetItem11setSelectedEb(ptr noundef nonnull align 8 dereferenceable(92) %40, i1 noundef zeroext true)
  br label %.loopexit

46:                                               ; preds = %.lr.ph, %43
  %.015 = add nuw nsw i32 %.01521, 1
  %47 = load ptr, ptr %3, align 8
  %48 = getelementptr inbounds i8, ptr %47, i64 144
  %49 = load ptr, ptr %48, align 8
  %50 = call noundef i32 @_ZNK11QTreeWidget17topLevelItemCountEv(ptr noundef nonnull align 8 dereferenceable(40) %49)
  %51 = icmp slt i32 %.015, %50
  br i1 %51, label %.lr.ph, label %.loopexit, !llvm.loop !28

.loopexit:                                        ; preds = %46, %.preheader, %.lr.ph23, %30, %45
  %52 = add nuw nsw i32 %.022, 1
  %53 = load ptr, ptr %3, align 8
  %54 = getelementptr inbounds i8, ptr %53, i64 144
  %55 = load ptr, ptr %54, align 8
  %56 = call noundef i32 @_ZNK11QTreeWidget17topLevelItemCountEv(ptr noundef nonnull align 8 dereferenceable(40) %55)
  %57 = icmp slt i32 %52, %56
  br i1 %57, label %.lr.ph23, label %._crit_edge, !llvm.loop !30

._crit_edge:                                      ; preds = %.loopexit, %14
  %58 = load ptr, ptr %3, align 8
  %59 = getelementptr inbounds i8, ptr %58, i64 144
  %60 = load ptr, ptr %59, align 8
  %61 = call noundef zeroext i1 @_ZN7QObject12blockSignalsEb(ptr noundef nonnull align 8 dereferenceable(16) %60, i1 noundef zeroext false) #18
  %62 = load ptr, ptr %0, align 8
  %63 = getelementptr inbounds i8, ptr %62, i64 464
  %64 = load ptr, ptr %63, align 8
  call void %64(ptr noundef nonnull align 8 dereferenceable(360) %0)
  br label %65

65:                                               ; preds = %_ZN5QListIP15QTreeWidgetItemED2Ev.exit, %._crit_edge
  ret void
}